target datalayout = "e-m:e-p270:32:32-p271:32:32-p272:64:64-i64:64-i128:128-f80:128-n8:16:32:64-S128"
target triple = "x86_64-pc-linux-gnu"

%struct.expert_field = type { i32, i32 }
%struct._packet_info = type { ptr, ptr, i32, i32, %struct.nstime_t, %struct.nstime_t, %struct.nstime_t, i8, ptr, ptr, ptr, ptr, %struct._address, %struct._address, %struct._address, %struct._address, %struct._address, %struct._address, i32, ptr, i8, [3 x i8], %struct.anon, i32, i32, i32, i32, ptr, i8, ptr, ptr, i16, i16, i32, i32, i16, i32, i32, ptr, ptr, ptr, i8, i8, i16, i16, i16, i32, i16, i16, ptr, ptr, ptr, ptr, ptr, i32, i32 }
%struct.nstime_t = type { i64, i32 }
%struct._address = type { i32, i32, ptr, ptr }
%struct.anon = type { i8, [3 x i8] }

@hf_bytes = internal global i32 0, align 4
@hf_knxip_reserved = internal global i32 0, align 4
@hf_knxip_user = internal global i32 0, align 4
@ei_knxip_error = hidden global %struct.expert_field zeroinitializer, align 4
@.str.231 = private unnamed_addr constant [3 x i8] c"? \00", align 1
@.str.242 = private unnamed_addr constant [3 x i8] c"%s\00", align 1
@.str.267 = private unnamed_addr constant [5 x i8] c"%02X\00", align 1
@.str.337 = private unnamed_addr constant [6 x i8] c" %02X\00", align 1
@.str.343 = private unnamed_addr constant [6 x i8] c"%s: $\00", align 1
@.str.373 = private unnamed_addr constant [19 x i8] c"Expected: 16 bytes\00", align 1
@.str.408 = private unnamed_addr constant [28 x i8] c"? Reserved: expected 1 byte\00", align 1
@.str.409 = private unnamed_addr constant [15 x i8] c"Expected: 0x00\00", align 1
@.str.465 = private unnamed_addr constant [28 x i8] c"Message Authentication Code\00", align 1
@.str.472 = private unnamed_addr constant [30 x i8] c"? Message Authentication Code\00", align 1
@.str.480 = private unnamed_addr constant [24 x i8] c"? User: expected 1 byte\00", align 1
@.str.481 = private unnamed_addr constant [9 x i8] c" User=%u\00", align 1
@.str.482 = private unnamed_addr constant [12 x i8] c", User = %u\00", align 1

; Function Attrs: null_pointer_is_valid sspstrong uwtable
define internal ptr @knxip_tree_add_data(ptr noundef %0, ptr noundef %1, i32 noundef %2, i32 noundef %3, ptr noundef %4, ptr noundef %5, ptr noundef %6, ptr noundef %7, ptr noundef %8) #0 {
  %10 = alloca ptr, align 8
  %11 = alloca ptr, align 8
  %12 = alloca i32, align 4
  %13 = alloca i32, align 4
  %14 = alloca ptr, align 8
  %15 = alloca ptr, align 8
  %16 = alloca ptr, align 8
  %17 = alloca ptr, align 8
  %18 = alloca ptr, align 8
  %19 = alloca ptr, align 8
  %20 = alloca i8, align 1
  store ptr %0, ptr %10, align 8
  store ptr %1, ptr %11, align 8
  store i32 %2, ptr %12, align 4
  store i32 %3, ptr %13, align 4
  store ptr %4, ptr %14, align 8
  store ptr %5, ptr %15, align 8
  store ptr %6, ptr %16, align 8
  store ptr %7, ptr %17, align 8
  store ptr %8, ptr %18, align 8
  call void @llvm.lifetime.start.p0(i64 8, ptr %19) #9
  %21 = load ptr, ptr %10, align 8
  %22 = load i32, ptr @hf_bytes, align 4
  %23 = load ptr, ptr %11, align 8
  %24 = load i32, ptr %12, align 4
  %25 = load i32, ptr %13, align 4
  %26 = load ptr, ptr %16, align 8
  %27 = call ptr (ptr, i32, ptr, i32, i32, ptr, ptr, ...) @proto_tree_add_bytes_format(ptr noundef %21, i32 noundef %22, ptr noundef %23, i32 noundef %24, i32 noundef %25, ptr noundef null, ptr noundef @.str.343, ptr noundef %26)
  store ptr %27, ptr %19, align 8
  %28 = load ptr, ptr %17, align 8
  %29 = icmp ne ptr %28, null
  br i1 %29, label %30, label %33

30:                                               ; preds = %9
  %31 = load ptr, ptr %14, align 8
  %32 = load ptr, ptr %17, align 8
  call void @col_append_str(ptr noundef %31, i32 noundef 25, ptr noundef %32)
  br label %33

33:                                               ; preds = %30, %9
  %34 = load ptr, ptr %18, align 8
  %35 = icmp ne ptr %34, null
  br i1 %35, label %36, label %39

36:                                               ; preds = %33
  %37 = load ptr, ptr %15, align 8
  %38 = load ptr, ptr %18, align 8
  call void (ptr, ptr, ...) @proto_item_append_text(ptr noundef %37, ptr noundef @.str.242, ptr noundef %38)
  br label %39

39:                                               ; preds = %36, %33
  br label %40

40:                                               ; preds = %60, %39
  %41 = load i32, ptr %13, align 4
  %42 = icmp sgt i32 %41, 0
  br i1 %42, label %43, label %68

43:                                               ; preds = %40
  call void @llvm.lifetime.start.p0(i64 1, ptr %20) #9
  %44 = load ptr, ptr %11, align 8
  %45 = load i32, ptr %12, align 4
  %46 = call zeroext i8 @tvb_get_uint8(ptr noundef %44, i32 noundef %45)
  store i8 %46, ptr %20, align 1
  %47 = load ptr, ptr %17, align 8
  %48 = icmp ne ptr %47, null
  br i1 %48, label %49, label %53

49:                                               ; preds = %43
  %50 = load ptr, ptr %14, align 8
  %51 = load i8, ptr %20, align 1
  %52 = zext i8 %51 to i32
  call void (ptr, i32, ptr, ...) @col_append_fstr(ptr noundef %50, i32 noundef 25, ptr noundef @.str.267, i32 noundef %52)
  br label %53

53:                                               ; preds = %49, %43
  %54 = load ptr, ptr %18, align 8
  %55 = icmp ne ptr %54, null
  br i1 %55, label %56, label %60

56:                                               ; preds = %53
  %57 = load ptr, ptr %15, align 8
  %58 = load i8, ptr %20, align 1
  %59 = zext i8 %58 to i32
  call void (ptr, ptr, ...) @proto_item_append_text(ptr noundef %57, ptr noundef @.str.267, i32 noundef %59)
  br label %60

60:                                               ; preds = %56, %53
  %61 = load ptr, ptr %19, align 8
  %62 = load i8, ptr %20, align 1
  %63 = zext i8 %62 to i32
  call void (ptr, ptr, ...) @proto_item_append_text(ptr noundef %61, ptr noundef @.str.337, i32 noundef %63)
  %64 = load i32, ptr %12, align 4
  %65 = add i32 %64, 1
  store i32 %65, ptr %12, align 4
  %66 = load i32, ptr %13, align 4
  %67 = add i32 %66, -1
  store i32 %67, ptr %13, align 4
  call void @llvm.lifetime.end.p0(i64 1, ptr %20) #9
  br label %40, !llvm.loop !24

68:                                               ; preds = %40
  %69 = load ptr, ptr %19, align 8
  call void @llvm.lifetime.end.p0(i64 8, ptr %19) #9
  ret ptr %69
}

; Function Attrs: null_pointer_is_valid sspstrong uwtable
define internal ptr @knxip_tree_add_reserved(ptr noundef %0, ptr noundef %1, i32 noundef %2, ptr noundef %3, ptr noundef %4) #0 {
  %6 = alloca ptr, align 8
  %7 = alloca ptr, align 8
  %8 = alloca i32, align 4
  %9 = alloca ptr, align 8
  %10 = alloca ptr, align 8
  %11 = alloca ptr, align 8
  store ptr %0, ptr %6, align 8
  store ptr %1, ptr %7, align 8
  store i32 %2, ptr %8, align 4
  store ptr %3, ptr %9, align 8
  store ptr %4, ptr %10, align 8
  call void @llvm.lifetime.start.p0(i64 8, ptr %11) #9
  %12 = load ptr, ptr %6, align 8
  %13 = load i32, ptr @hf_knxip_reserved, align 4
  %14 = load ptr, ptr %7, align 8
  %15 = load i32, ptr %8, align 4
  %16 = call ptr @proto_tree_add_item(ptr noundef %12, i32 noundef %13, ptr noundef %14, i32 noundef %15, i32 noundef 1, i32 noundef 0)
  store ptr %16, ptr %11, align 8
  %17 = load ptr, ptr %7, align 8
  %18 = load i32, ptr %8, align 4
  %19 = call zeroext i8 @tvb_get_uint8(ptr noundef %17, i32 noundef %18)
  %20 = icmp ne i8 %19, 0
  br i1 %20, label %21, label %31

21:                                               ; preds = %5
  %22 = load ptr, ptr %11, align 8
  call void (ptr, ptr, ...) @proto_item_prepend_text(ptr noundef %22, ptr noundef @.str.231)
  %23 = load ptr, ptr %9, align 8
  %24 = load ptr, ptr %11, align 8
  %25 = call ptr (ptr, ptr, ptr, ptr, ...) @expert_add_info_format(ptr noundef %23, ptr noundef %24, ptr noundef @ei_knxip_error, ptr noundef @.str.409)
  %26 = load ptr, ptr %10, align 8
  %27 = icmp ne ptr %26, null
  br i1 %27, label %28, label %30

28:                                               ; preds = %21
  %29 = load ptr, ptr %10, align 8
  store i8 0, ptr %29, align 1
  br label %30

30:                                               ; preds = %28, %21
  br label %31

31:                                               ; preds = %30, %5
  %32 = load ptr, ptr %11, align 8
  call void @llvm.lifetime.end.p0(i64 8, ptr %11) #9
  ret ptr %32
}

; Function Attrs: null_pointer_is_valid sspstrong uwtable
define internal zeroext i8 @dissect_session_auth(ptr noundef %0, ptr noundef %1, ptr noundef %2, ptr noundef %3, ptr noundef %4) #0 {
  %6 = alloca ptr, align 8
  %7 = alloca ptr, align 8
  %8 = alloca ptr, align 8
  %9 = alloca ptr, align 8
  %10 = alloca ptr, align 8
  %11 = alloca i8, align 1
  %12 = alloca i32, align 4
  %13 = alloca ptr, align 8
  %14 = alloca i32, align 4
  %15 = alloca ptr, align 8
  %16 = alloca i8, align 1
  store ptr %0, ptr %6, align 8
  store ptr %1, ptr %7, align 8
  store ptr %2, ptr %8, align 8
  store ptr %3, ptr %9, align 8
  store ptr %4, ptr %10, align 8
  call void @llvm.lifetime.start.p0(i64 1, ptr %11) #9
  store i8 1, ptr %11, align 1
  call void @llvm.lifetime.start.p0(i64 4, ptr %12) #9
  %17 = load ptr, ptr %10, align 8
  %18 = load i32, ptr %17, align 4
  store i32 %18, ptr %12, align 4
  call void @llvm.lifetime.start.p0(i64 8, ptr %13) #9
  %19 = load ptr, ptr %7, align 8
  %20 = getelementptr inbounds nuw %struct._packet_info, ptr %19, i32 0, i32 1
  %21 = load ptr, ptr %20, align 8
  store ptr %21, ptr %13, align 8
  call void @llvm.lifetime.start.p0(i64 4, ptr %14) #9
  %22 = load ptr, ptr %6, align 8
  %23 = load i32, ptr %12, align 4
  %24 = call i32 @tvb_captured_length_remaining(ptr noundef %22, i32 noundef %23)
  store i32 %24, ptr %14, align 4
  call void @llvm.lifetime.start.p0(i64 8, ptr %15) #9
  %25 = load i32, ptr %14, align 4
  %26 = icmp sle i32 %25, 0
  br i1 %26, label %27, label %33

27:                                               ; preds = %5
  %28 = load ptr, ptr %9, align 8
  %29 = load ptr, ptr %7, align 8
  %30 = load ptr, ptr %6, align 8
  %31 = load i32, ptr %12, align 4
  %32 = call ptr (ptr, ptr, ptr, ptr, i32, i32, ptr, ...) @proto_tree_add_expert_format(ptr noundef %28, ptr noundef %29, ptr noundef @ei_knxip_error, ptr noundef %30, i32 noundef %31, i32 noundef 0, ptr noundef @.str.408)
  store i8 0, ptr %11, align 1
  br label %94

33:                                               ; preds = %5
  %34 = load ptr, ptr %9, align 8
  %35 = load ptr, ptr %6, align 8
  %36 = load i32, ptr %12, align 4
  %37 = load ptr, ptr %7, align 8
  %38 = call ptr @knxip_tree_add_reserved(ptr noundef %34, ptr noundef %35, i32 noundef %36, ptr noundef %37, ptr noundef %11)
  %39 = load i32, ptr %12, align 4
  %40 = add i32 %39, 1
  store i32 %40, ptr %12, align 4
  %41 = load i32, ptr %14, align 4
  %42 = add i32 %41, -1
  store i32 %42, ptr %14, align 4
  %43 = load i32, ptr %14, align 4
  %44 = icmp sle i32 %43, 0
  br i1 %44, label %45, label %51

45:                                               ; preds = %33
  %46 = load ptr, ptr %9, align 8
  %47 = load ptr, ptr %7, align 8
  %48 = load ptr, ptr %6, align 8
  %49 = load i32, ptr %12, align 4
  %50 = call ptr (ptr, ptr, ptr, ptr, i32, i32, ptr, ...) @proto_tree_add_expert_format(ptr noundef %46, ptr noundef %47, ptr noundef @ei_knxip_error, ptr noundef %48, i32 noundef %49, i32 noundef 0, ptr noundef @.str.480)
  store i8 0, ptr %11, align 1
  br label %93

51:                                               ; preds = %33
  call void @llvm.lifetime.start.p0(i64 1, ptr %16) #9
  %52 = load ptr, ptr %6, align 8
  %53 = load i32, ptr %12, align 4
  %54 = call zeroext i8 @tvb_get_uint8(ptr noundef %52, i32 noundef %53)
  store i8 %54, ptr %16, align 1
  %55 = load ptr, ptr %13, align 8
  %56 = load i8, ptr %16, align 1
  %57 = zext i8 %56 to i32
  call void (ptr, i32, ptr, ...) @col_append_fstr(ptr noundef %55, i32 noundef 25, ptr noundef @.str.481, i32 noundef %57)
  %58 = load ptr, ptr %8, align 8
  %59 = load i8, ptr %16, align 1
  %60 = zext i8 %59 to i32
  call void (ptr, ptr, ...) @proto_item_append_text(ptr noundef %58, ptr noundef @.str.482, i32 noundef %60)
  %61 = load ptr, ptr %9, align 8
  %62 = load i32, ptr @hf_knxip_user, align 4
  %63 = load ptr, ptr %6, align 8
  %64 = load i32, ptr %12, align 4
  %65 = call ptr @proto_tree_add_item(ptr noundef %61, i32 noundef %62, ptr noundef %63, i32 noundef %64, i32 noundef 1, i32 noundef 0)
  %66 = load i32, ptr %12, align 4
  %67 = add i32 %66, 1
  store i32 %67, ptr %12, align 4
  %68 = load i32, ptr %14, align 4
  %69 = add i32 %68, -1
  store i32 %69, ptr %14, align 4
  %70 = load i32, ptr %14, align 4
  %71 = icmp slt i32 %70, 16
  br i1 %71, label %72, label %85

72:                                               ; preds = %51
  %73 = load ptr, ptr %9, align 8
  %74 = load i32, ptr @hf_bytes, align 4
  %75 = load ptr, ptr %6, align 8
  %76 = load i32, ptr %12, align 4
  %77 = load i32, ptr %14, align 4
  %78 = call ptr (ptr, i32, ptr, i32, i32, ptr, ptr, ...) @proto_tree_add_bytes_format(ptr noundef %73, i32 noundef %74, ptr noundef %75, i32 noundef %76, i32 noundef %77, ptr noundef null, ptr noundef @.str.472)
  store ptr %78, ptr %15, align 8
  %79 = load ptr, ptr %7, align 8
  %80 = load ptr, ptr %15, align 8
  %81 = call ptr (ptr, ptr, ptr, ptr, ...) @expert_add_info_format(ptr noundef %79, ptr noundef %80, ptr noundef @ei_knxip_error, ptr noundef @.str.373)
  %82 = load i32, ptr %14, align 4
  %83 = load i32, ptr %12, align 4
  %84 = add i32 %83, %82
  store i32 %84, ptr %12, align 4
  store i8 0, ptr %11, align 1
  br label %92

85:                                               ; preds = %51
  %86 = load ptr, ptr %9, align 8
  %87 = load ptr, ptr %6, align 8
  %88 = load i32, ptr %12, align 4
  %89 = call ptr @knxip_tree_add_data(ptr noundef %86, ptr noundef %87, i32 noundef %88, i32 noundef 16, ptr noundef null, ptr noundef null, ptr noundef @.str.465, ptr noundef null, ptr noundef null)
  %90 = load i32, ptr %12, align 4
  %91 = add i32 %90, 16
  store i32 %91, ptr %12, align 4
  br label %92

92:                                               ; preds = %85, %72
  call void @llvm.lifetime.end.p0(i64 1, ptr %16) #9
  br label %93

93:                                               ; preds = %92, %45
  br label %94

94:                                               ; preds = %93, %27
  %95 = load i32, ptr %12, align 4
  %96 = load ptr, ptr %10, align 8
  store i32 %95, ptr %96, align 4
  %97 = load i8, ptr %11, align 1
  call void @llvm.lifetime.end.p0(i64 8, ptr %15) #9
  call void @llvm.lifetime.end.p0(i64 4, ptr %14) #9
  call void @llvm.lifetime.end.p0(i64 8, ptr %13) #9
  call void @llvm.lifetime.end.p0(i64 4, ptr %12) #9
  call void @llvm.lifetime.end.p0(i64 1, ptr %11) #9
  ret i8 %97
}