; Function Attrs: null_pointer_is_valid sspstrong uwtable
define internal fastcc zeroext range(i8 0, 2) i8 @dissect_session_auth(ptr noundef %0, ptr noundef %1, ptr noundef %2, ptr noundef %3, ptr noundef captures(none) %4) unnamed_addr #0 {
  %6 = load i32, ptr %4, align 4
  %7 = getelementptr inbounds nuw i8, ptr %1, i64 8
  %8 = load ptr, ptr %7, align 8
  %9 = tail call i32 @tvb_captured_length_remaining(ptr noundef %0, i32 noundef %6)
  %10 = icmp slt i32 %9, 1
  br i1 %10, label %11, label %13

11:                                               ; preds = %5
  %12 = tail call ptr (ptr, ptr, ptr, ptr, i32, i32, ptr, ...) @proto_tree_add_expert_format(ptr noundef %3, ptr noundef %1, ptr noundef nonnull @ei_knxip_error, ptr noundef %0, i32 noundef %6, i32 noundef 0, ptr noundef nonnull @.str.408)
  br label %43

13:                                               ; preds = %5
  %14 = load i32, ptr @hf_knxip_reserved, align 4
  %15 = tail call ptr @proto_tree_add_item(ptr noundef %3, i32 noundef %14, ptr noundef %0, i32 noundef %6, i32 noundef 1, i32 noundef 0)
  %16 = tail call zeroext i8 @tvb_get_uint8(ptr noundef %0, i32 noundef %6)
  %.not.i = icmp eq i8 %16, 0
  br i1 %.not.i, label %knxip_tree_add_reserved.exit, label %17

17:                                               ; preds = %13
  tail call void (ptr, ptr, ...) @proto_item_prepend_text(ptr noundef %15, ptr noundef nonnull @.str.231)
  %18 = tail call ptr (ptr, ptr, ptr, ptr, ...) @expert_add_info_format(ptr noundef %1, ptr noundef %15, ptr noundef nonnull @ei_knxip_error, ptr noundef nonnull @.str.409)
  br label %knxip_tree_add_reserved.exit

knxip_tree_add_reserved.exit:                     ; preds = %13, %17
  %.2 = phi i8 [ 1, %13 ], [ 0, %17 ]
  %19 = add i32 %6, 1
  %20 = icmp eq i32 %9, 1
  br i1 %20, label %21, label %23

21:                                               ; preds = %knxip_tree_add_reserved.exit
  %22 = tail call ptr (ptr, ptr, ptr, ptr, i32, i32, ptr, ...) @proto_tree_add_expert_format(ptr noundef %3, ptr noundef %1, ptr noundef nonnull @ei_knxip_error, ptr noundef %0, i32 noundef %19, i32 noundef 0, ptr noundef nonnull @.str.480)
  br label %43

23:                                               ; preds = %knxip_tree_add_reserved.exit
  %24 = tail call zeroext i8 @tvb_get_uint8(ptr noundef %0, i32 noundef %19)
  %25 = zext i8 %24 to i32
  tail call void (ptr, i32, ptr, ...) @col_append_fstr(ptr noundef %8, i32 noundef 25, ptr noundef nonnull @.str.481, i32 noundef %25)
  tail call void (ptr, ptr, ...) @proto_item_append_text(ptr noundef %2, ptr noundef nonnull @.str.482, i32 noundef %25)
  %26 = load i32, ptr @hf_knxip_user, align 4
  %27 = tail call ptr @proto_tree_add_item(ptr noundef %3, i32 noundef %26, ptr noundef %0, i32 noundef %19, i32 noundef 1, i32 noundef 0)
  %28 = add i32 %6, 2
  %29 = icmp samesign ult i32 %9, 18
  br i1 %29, label %30, label %35

30:                                               ; preds = %23
  %31 = add nsw i32 %9, -2
  %32 = load i32, ptr @hf_bytes, align 4
  %33 = tail call ptr (ptr, i32, ptr, i32, i32, ptr, ptr, ...) @proto_tree_add_bytes_format(ptr noundef %3, i32 noundef %32, ptr noundef %0, i32 noundef %28, i32 noundef %31, ptr noundef null, ptr noundef nonnull @.str.472)
  %34 = tail call ptr (ptr, ptr, ptr, ptr, ...) @expert_add_info_format(ptr noundef %1, ptr noundef %33, ptr noundef nonnull @ei_knxip_error, ptr noundef nonnull @.str.373)
  br label %knxip_tree_add_data.exit

35:                                               ; preds = %23
  %36 = load i32, ptr @hf_bytes, align 4
  %37 = tail call ptr (ptr, i32, ptr, i32, i32, ptr, ptr, ...) @proto_tree_add_bytes_format(ptr noundef %3, i32 noundef %36, ptr noundef %0, i32 noundef %28, i32 noundef 16, ptr noundef null, ptr noundef nonnull @.str.343, ptr noundef nonnull @.str.465)
  br label %.lr.ph.split.us.split.us.i

.lr.ph.split.us.split.us.i:                       ; preds = %.lr.ph.split.us.split.us.i, %35
  %.029.us.us.i = phi i32 [ %40, %.lr.ph.split.us.split.us.i ], [ %28, %35 ]
  %.02428.us.us.i = phi i32 [ %41, %.lr.ph.split.us.split.us.i ], [ 16, %35 ]
  %38 = tail call zeroext i8 @tvb_get_uint8(ptr noundef %0, i32 noundef %.029.us.us.i)
  %39 = zext i8 %38 to i32
  tail call void (ptr, ptr, ...) @proto_item_append_text(ptr noundef %37, ptr noundef nonnull @.str.337, i32 noundef %39)
  %40 = add i32 %.029.us.us.i, 1
  %41 = add nsw i32 %.02428.us.us.i, -1
  %42 = icmp samesign ugt i32 %.02428.us.us.i, 1
  br i1 %42, label %.lr.ph.split.us.split.us.i, label %knxip_tree_add_data.exit, !llvm.loop !29

knxip_tree_add_data.exit:                         ; preds = %.lr.ph.split.us.split.us.i, %30
  %.149 = phi i8 [ 0, %30 ], [ %.2, %.lr.ph.split.us.split.us.i ]
  %.pn = phi i32 [ %9, %30 ], [ 18, %.lr.ph.split.us.split.us.i ]
  %.1 = add i32 %.pn, %6
  br label %43

43:                                               ; preds = %21, %knxip_tree_add_data.exit, %11
  %.048 = phi i8 [ 0, %11 ], [ 0, %21 ], [ %.149, %knxip_tree_add_data.exit ]
  %.0 = phi i32 [ %6, %11 ], [ %19, %21 ], [ %.1, %knxip_tree_add_data.exit ]
  store i32 %.0, ptr %4, align 4
  ret i8 %.048
}